; Function Attrs: mustprogress uwtable
define dso_local void @_ZN11conformance19ConformanceResponseC2EPN6google8protobuf5ArenaE(ptr nocapture noundef nonnull writeonly align 8 dereferenceable(32) %this, ptr noundef %arena) unnamed_addr #3 align 2 personality ptr @__gxx_personality_v0 {
entry:
  %_internal_metadata_.i.i = getelementptr inbounds i8, ptr %this, i64 8
  store ptr %arena, ptr %_internal_metadata_.i.i, align 8
  store ptr getelementptr inbounds ({ [22 x ptr] }, ptr @_ZTVN11conformance19ConformanceResponseE, i64 0, i32 0, i64 2), ptr %this, align 8
  %_cached_size_ = getelementptr inbounds i8, ptr %this, i64 24
  store i32 0, ptr %_cached_size_, align 8
  %0 = load atomic i32, ptr @scc_info_ConformanceResponse_conformance_2fconformance_2eproto acquire, align 8
  %cmp.not.i.i = icmp eq i32 %0, 0
  br i1 %cmp.not.i.i, label %invoke.cont2, label %if.then.i.i

if.then.i.i:                                      ; preds = %entry
  tail call void @_ZN6google8protobuf8internal11InitSCCImplEPNS1_11SCCInfoBaseE(ptr noundef nonnull @scc_info_ConformanceResponse_conformance_2fconformance_2eproto)
  br label %invoke.cont2

invoke.cont2:                                     ; preds = %if.then.i.i, %entry
  %_oneof_case_.i.i = getelementptr inbounds i8, ptr %this, i64 28
  store i32 0, ptr %_oneof_case_.i.i, align 4
  ret void
}